MPASM 5.87                          MAIN.ASM   10-23-2021  18:02:52         PAGE  1


LOC  OBJECT CODE     LINE SOURCE TEXT
  VALUE

                      00001 #include "p16f84a.inc"
                      00001         LIST
                      00002 
                      00003 ;==========================================================================
                      00004 ; Build date : Jan 06 2020
                      00005 ;  MPASM PIC16F84A processor include
                      00006 ; 
                      00007 ;  (c) Copyright 1999-2020 Microchip Technology, All rights reserved
                      00008 ;==========================================================================
                      00009 
                      00209         LIST
                      00002 ; CONFIG
                      00003 ; __config 0x3FFA
2007   3FFA           00004  __CONFIG _FOSC_HS & _WDTE_OFF & _PWRTE_OFF & _CP_OFF
                      00005 
                      00006  cblock         0x0C
  0000000C            00007     DELAY1
  0000000D            00008     DELAY2
                      00009  endc
0000                  00010  org            0x00
                      00011 
0000                  00012 start
0000   1683           00013     bsf         STATUS, RP0     ; SET bit 5, go to Bank 1
Message[302]: Register in operand not in bank 0.  Ensure that bank bits are correct.
0001   1405           00014     bsf         TRISA, TRISA0   ; TRISA data direction register
                      00015                                 ; SET TRISA bit 0, RA0 pin is INPUT
0002   0103           00016     clrw                        ; clear W (working) register
0003   3000           00017     movlw       0x00            ; move literal 0b'00000000' to W register
Message[305]: Using default destination of 1 (file).
Message[302]: Register in operand not in bank 0.  Ensure that bank bits are correct.
0004   0586           00018     andwf       TRISB           ; (W & TRISB), CLEAR TRISB bits
                      00019                                 ; PORTB pin RBx is OUTPUT
0005   1283           00020     bcf         STATUS, RP0     ; CLEAR bit 5, go to Bank 0
Message[305]: Using default destination of 1 (file).
0006   0586           00021     andwf       PORTB           ; 0b'00000000' & PORTB, CLEAR PORTB pins
                      00022 
0007                  00023 main_loop
0007   3058           00024     movlw       0x58            ; move literal 0d'163' to W register
0008   008D           00025     movwf       DELAY2
0009   1805           00026     btfsc       PORTA, RA0      ; check if pin RA0 is SET (not pressed)
                      00027                                 ; execute next statement, if CLEAR
                      00028                                 ; (pressed or GND), go to "call delay"
000A   2807           00029     goto        main_loop       ; go to main_loop, wait for input
000B   2011           00030     call        delay           ; cause delay as debounce (RA0 is CLEAR)
                      00031                                 ; call delay subroutine
000C   3058           00032     movlw       0x58
000D   008D           00033     movwf       DELAY2
000E   0A86           00034     incf        PORTB, f        ; add 1 bit to PORTB
000F   2011           00035     call        delay
0010   2807           00036     goto        main_loop       ; go to main_loop
                      00037 
0011                  00038 delay                           ; short delay routine for debounce
0011                  00039 loop
MPASM 5.87                          MAIN.ASM   10-23-2021  18:02:52         PAGE  2


LOC  OBJECT CODE     LINE SOURCE TEXT
  VALUE

0011   0B8C           00040     decfsz      DELAY1, f
0012   2811           00041     goto        loop
0013   0B8D           00042     decfsz      DELAY2, f
0014   2811           00043     goto        loop
0015   0008           00044     return
                      00045  end
MPASM 5.87                          MAIN.ASM   10-23-2021  18:02:52         PAGE  3


SYMBOL TABLE
  LABEL                             VALUE 

C                                 00000000
DC                                00000001
DELAY1                            0000000C
DELAY2                            0000000D
EEADR                             00000009
EECON1                            00000088
EECON2                            00000089
EEDATA                            00000008
EEIE                              00000006
EEIF                              00000004
F                                 00000001
FSR                               00000004
GIE                               00000007
INDF                              00000000
INTCON                            0000000B
INTE                              00000004
INTEDG                            00000006
INTF                              00000001
IRP                               00000007
NOT_PD                            00000003
NOT_RBPU                          00000007
NOT_TO                            00000004
OPTION_REG                        00000081
PCL                               00000002
PCLATH                            0000000A
PORTA                             00000005
PORTB                             00000006
PS0                               00000000
PS1                               00000001
PS2                               00000002
PSA                               00000003
RA0                               00000000
RA1                               00000001
RA2                               00000002
RA3                               00000003
RA4                               00000004
RB0                               00000000
RB1                               00000001
RB2                               00000002
RB3                               00000003
RB4                               00000004
RB5                               00000005
RB6                               00000006
RB7                               00000007
RBIE                              00000003
RBIF                              00000000
RD                                00000000
RP0                               00000005
RP1                               00000006
STATUS                            00000003
T0CS                              00000005
T0IE                              00000005
T0IF                              00000002
MPASM 5.87                          MAIN.ASM   10-23-2021  18:02:52         PAGE  4


SYMBOL TABLE
  LABEL                             VALUE 

T0SE                              00000004
TMR0                              00000001
TMR0IE                            00000005
TMR0IF                            00000002
TRISA                             00000085
TRISA0                            00000000
TRISA1                            00000001
TRISA2                            00000002
TRISA3                            00000003
TRISA4                            00000004
TRISB                             00000086
TRISB0                            00000000
TRISB1                            00000001
TRISB2                            00000002
TRISB3                            00000003
TRISB4                            00000004
TRISB5                            00000005
TRISB6                            00000006
TRISB7                            00000007
W                                 00000000
WR                                00000001
WREN                              00000002
WRERR                             00000003
Z                                 00000002
_CONFIG                           00002007
_CP_OFF                           00003FFF
_CP_ON                            0000000F
_DEVID1                           00002006
_FOSC_EXTRC                       00003FFF
_FOSC_HS                          00003FFE
_FOSC_LP                          00003FFC
_FOSC_XT                          00003FFD
_HS_OSC                           00003FFE
_IDLOC0                           00002000
_IDLOC1                           00002001
_IDLOC2                           00002002
_IDLOC3                           00002003
_LP_OSC                           00003FFC
_PWRTE_OFF                        00003FFF
_PWRTE_ON                         00003FF7
_RC_OSC                           00003FFF
_WDTE_OFF                         00003FFB
_WDTE_ON                          00003FFF
_WDT_OFF                          00003FFB
_WDT_ON                           00003FFF
_XT_OSC                           00003FFD
__16F84A                          00000001
delay                             00000011
loop                              00000011
main_loop                         00000007
start                             00000000
MPASM 5.87                          MAIN.ASM   10-23-2021  18:02:52         PAGE  5


MEMORY USAGE MAP ('X' = Used,  '-' = Unused)


0000 : XXXXXXXXXXXXXXXX XXXXXX---------- ---------------- ----------------
2000 : -------X-------- ---------------- ---------------- ----------------

All other memory blocks unused.

Program Memory Words Used:    22
Program Memory Words Free:  1002


Errors   :     0
Warnings :     0 reported,     0 suppressed
Messages :     4 reported,     0 suppressed

